target datalayout = "e-m:e-p270:32:32-p271:32:32-p272:64:64-i64:64-f80:128-n8:16:32:64-S128"
target triple = "x86_64-pc-linux-gnu"

@.str = private unnamed_addr constant [3 x i8] c"%d\00", align 1
@.str.1 = private unnamed_addr constant [6 x i8] c"%d %d\00", align 1
@.str.2 = private unnamed_addr constant [4 x i8] c"%d\0A\00", align 1

; Function Attrs: noinline nounwind uwtable
define dso_local i32 @main() #0 {
  %1 = alloca i32, align 4
  %2 = alloca [10000 x i32], align 16
  %3 = alloca i32*, align 8
  %4 = alloca i32*, align 8
  %5 = alloca i32, align 4
  %6 = alloca i32, align 4
  %7 = alloca i32, align 4
  %8 = alloca i32, align 4
  %9 = alloca i32, align 4
  %10 = alloca i32, align 4
  store i32 0, i32* %1, align 4
  %11 = getelementptr inbounds [10000 x i32], [10000 x i32]* %2, i64 0, i64 0
  store i32* %11, i32** %3, align 8
  %12 = getelementptr inbounds [10000 x i32], [10000 x i32]* %2, i64 0, i64 0
  store i32* %12, i32** %4, align 8
  store i32 0, i32* %10, align 4
  %13 = call i32 (i8*, ...) @__isoc99_scanf(i8* getelementptr inbounds ([3 x i8], [3 x i8]* @.str, i64 0, i64 0), i32* %5)
  store i32 1, i32* %8, align 4
  br label %14

14:                                               ; preds = %138, %0
  %15 = load i32, i32* %8, align 4
  %16 = load i32, i32* %5, align 4
  %17 = icmp sle i32 %15, %16
  br i1 %17, label %18, label %141

18:                                               ; preds = %14
  %19 = getelementptr inbounds [10000 x i32], [10000 x i32]* %2, i64 0, i64 0
  store i32* %19, i32** %3, align 8
  %20 = getelementptr inbounds [10000 x i32], [10000 x i32]* %2, i64 0, i64 0
  store i32* %20, i32** %4, align 8
  %21 = call i32 (i8*, ...) @__isoc99_scanf(i8* getelementptr inbounds ([6 x i8], [6 x i8]* @.str.1, i64 0, i64 0), i32* %6, i32* %7)
  store i32 1, i32* %9, align 4
  br label %22

22:                                               ; preds = %32, %18
  %23 = load i32, i32* %9, align 4
  %24 = load i32, i32* %6, align 4
  %25 = load i32, i32* %7, align 4
  %26 = mul nsw i32 %24, %25
  %27 = icmp sle i32 %23, %26
  br i1 %27, label %28, label %35

28:                                               ; preds = %22
  %29 = load i32*, i32** %3, align 8
  %30 = getelementptr inbounds i32, i32* %29, i32 1
  store i32* %30, i32** %3, align 8
  %31 = call i32 (i8*, ...) @__isoc99_scanf(i8* getelementptr inbounds ([3 x i8], [3 x i8]* @.str, i64 0, i64 0), i32* %29)
  br label %32

32:                                               ; preds = %28
  %33 = load i32, i32* %9, align 4
  %34 = add nsw i32 %33, 1
  store i32 %34, i32* %9, align 4
  br label %22

35:                                               ; preds = %22
  %36 = load i32, i32* %6, align 4
  %37 = icmp eq i32 %36, 1
  br i1 %37, label %38, label %55

38:                                               ; preds = %35
  store i32 0, i32* %9, align 4
  br label %39

39:                                               ; preds = %51, %38
  %40 = load i32, i32* %9, align 4
  %41 = load i32, i32* %7, align 4
  %42 = icmp slt i32 %40, %41
  br i1 %42, label %43, label %54

43:                                               ; preds = %39
  %44 = load i32*, i32** %4, align 8
  %45 = load i32, i32* %9, align 4
  %46 = sext i32 %45 to i64
  %47 = getelementptr inbounds i32, i32* %44, i64 %46
  %48 = load i32, i32* %47, align 4
  %49 = load i32, i32* %10, align 4
  %50 = add nsw i32 %49, %48
  store i32 %50, i32* %10, align 4
  br label %51

51:                                               ; preds = %43
  %52 = load i32, i32* %9, align 4
  %53 = add nsw i32 %52, 1
  store i32 %53, i32* %9, align 4
  br label %39

54:                                               ; preds = %39
  br label %135

55:                                               ; preds = %35
  %56 = load i32, i32* %7, align 4
  %57 = icmp eq i32 %56, 1
  br i1 %57, label %58, label %71

58:                                               ; preds = %55
  %59 = load i32*, i32** %4, align 8
  %60 = load i32, i32* %59, align 4
  %61 = load i32, i32* %10, align 4
  %62 = add nsw i32 %61, %60
  store i32 %62, i32* %10, align 4
  %63 = load i32*, i32** %4, align 8
  %64 = load i32, i32* %6, align 4
  %65 = sext i32 %64 to i64
  %66 = getelementptr inbounds i32, i32* %63, i64 %65
  %67 = getelementptr inbounds i32, i32* %66, i64 -1
  %68 = load i32, i32* %67, align 4
  %69 = load i32, i32* %10, align 4
  %70 = add nsw i32 %69, %68
  store i32 %70, i32* %10, align 4
  br label %134

71:                                               ; preds = %55
  store i32 0, i32* %9, align 4
  br label %72

72:                                               ; preds = %98, %71
  %73 = load i32, i32* %9, align 4
  %74 = load i32, i32* %7, align 4
  %75 = icmp slt i32 %73, %74
  br i1 %75, label %76, label %101

76:                                               ; preds = %72
  %77 = load i32*, i32** %4, align 8
  %78 = load i32, i32* %9, align 4
  %79 = sext i32 %78 to i64
  %80 = getelementptr inbounds i32, i32* %77, i64 %79
  %81 = load i32, i32* %80, align 4
  %82 = load i32, i32* %10, align 4
  %83 = add nsw i32 %82, %81
  store i32 %83, i32* %10, align 4
  %84 = load i32*, i32** %4, align 8
  %85 = load i32, i32* %6, align 4
  %86 = load i32, i32* %7, align 4
  %87 = mul nsw i32 %85, %86
  %88 = sext i32 %87 to i64
  %89 = getelementptr inbounds i32, i32* %84, i64 %88
  %90 = load i32, i32* %9, align 4
  %91 = sext i32 %90 to i64
  %92 = sub i64 0, %91
  %93 = getelementptr inbounds i32, i32* %89, i64 %92
  %94 = getelementptr inbounds i32, i32* %93, i64 -1
  %95 = load i32, i32* %94, align 4
  %96 = load i32, i32* %10, align 4
  %97 = add nsw i32 %96, %95
  store i32 %97, i32* %10, align 4
  br label %98

98:                                               ; preds = %76
  %99 = load i32, i32* %9, align 4
  %100 = add nsw i32 %99, 1
  store i32 %100, i32* %9, align 4
  br label %72

101:                                              ; preds = %72
  store i32 1, i32* %9, align 4
  br label %102

102:                                              ; preds = %130, %101
  %103 = load i32, i32* %9, align 4
  %104 = load i32, i32* %6, align 4
  %105 = sub nsw i32 %104, 2
  %106 = icmp sle i32 %103, %105
  br i1 %106, label %107, label %133

107:                                              ; preds = %102
  %108 = load i32*, i32** %4, align 8
  %109 = load i32, i32* %9, align 4
  %110 = load i32, i32* %7, align 4
  %111 = mul nsw i32 %109, %110
  %112 = sext i32 %111 to i64
  %113 = getelementptr inbounds i32, i32* %108, i64 %112
  %114 = load i32, i32* %113, align 4
  %115 = load i32, i32* %10, align 4
  %116 = add nsw i32 %115, %114
  store i32 %116, i32* %10, align 4
  %117 = load i32*, i32** %4, align 8
  %118 = load i32, i32* %9, align 4
  %119 = load i32, i32* %7, align 4
  %120 = mul nsw i32 %118, %119
  %121 = sext i32 %120 to i64
  %122 = getelementptr inbounds i32, i32* %117, i64 %121
  %123 = load i32, i32* %7, align 4
  %124 = sext i32 %123 to i64
  %125 = getelementptr inbounds i32, i32* %122, i64 %124
  %126 = getelementptr inbounds i32, i32* %125, i64 -1
  %127 = load i32, i32* %126, align 4
  %128 = load i32, i32* %10, align 4
  %129 = add nsw i32 %128, %127
  store i32 %129, i32* %10, align 4
  br label %130

130:                                              ; preds = %107
  %131 = load i32, i32* %9, align 4
  %132 = add nsw i32 %131, 1
  store i32 %132, i32* %9, align 4
  br label %102

133:                                              ; preds = %102
  br label %134

134:                                              ; preds = %133, %58
  br label %135

135:                                              ; preds = %134, %54
  %136 = load i32, i32* %10, align 4
  %137 = call i32 (i8*, ...) @printf(i8* getelementptr inbounds ([4 x i8], [4 x i8]* @.str.2, i64 0, i64 0), i32 %136)
  store i32 0, i32* %10, align 4
  br label %138

138:                                              ; preds = %135
  %139 = load i32, i32* %8, align 4
  %140 = add nsw i32 %139, 1
  store i32 %140, i32* %8, align 4
  br label %14

141:                                              ; preds = %14
  ret i32 0
}